target datalayout = "e-m:e-p270:32:32-p271:32:32-p272:64:64-i64:64-i128:128-f80:128-n8:16:32:64-S128"
target triple = "x86_64-pc-linux-gnu"

%"class.icu_77::InputText" = type <{ ptr, i32, [4 x i8], ptr, i8, [7 x i8], ptr, ptr, i32, [4 x i8] }>

; Function Attrs: mustprogress nounwind uwtable
define void @_ZN6icu_779InputText10MungeInputEa(ptr noundef nonnull align 8 dereferenceable(52) %0, i8 noundef signext %1) #2 align 2 {
  %3 = alloca ptr, align 8
  %4 = alloca i8, align 1
  %5 = alloca i32, align 4
  %6 = alloca i32, align 4
  %7 = alloca i8, align 1
  %8 = alloca i8, align 1
  %9 = alloca i32, align 4
  %10 = alloca i32, align 4
  %11 = alloca i32, align 4
  %12 = alloca i32, align 4
  %13 = alloca i32, align 4
  store ptr %0, ptr %3, align 8, !tbaa !3
  store i8 %1, ptr %4, align 1, !tbaa !24
  %14 = load ptr, ptr %3, align 8
  call void @llvm.lifetime.start.p0(i64 4, ptr %5) #11
  store i32 0, ptr %5, align 4, !tbaa !21
  call void @llvm.lifetime.start.p0(i64 4, ptr %6) #11
  store i32 0, ptr %6, align 4, !tbaa !21
  call void @llvm.lifetime.start.p0(i64 1, ptr %7) #11
  call void @llvm.lifetime.start.p0(i64 1, ptr %8) #11
  store i8 0, ptr %8, align 1, !tbaa !25
  call void @llvm.lifetime.start.p0(i64 4, ptr %9) #11
  store i32 0, ptr %9, align 4, !tbaa !21
  call void @llvm.lifetime.start.p0(i64 4, ptr %10) #11
  store i32 0, ptr %10, align 4, !tbaa !21
  %15 = load i8, ptr %4, align 1, !tbaa !24
  %16 = icmp ne i8 %15, 0
  br i1 %16, label %17, label %70

17:                                               ; preds = %2
  store i32 0, ptr %5, align 4, !tbaa !21
  br label %18

18:                                               ; preds = %64, %17
  %19 = load i32, ptr %5, align 4, !tbaa !21
  %20 = getelementptr inbounds nuw %"class.icu_77::InputText", ptr %14, i32 0, i32 8
  %21 = load i32, ptr %20, align 8, !tbaa !17
  %22 = icmp slt i32 %19, %21
  br i1 %22, label %23, label %26

23:                                               ; preds = %18
  %24 = load i32, ptr %6, align 4, !tbaa !21
  %25 = icmp slt i32 %24, 8192
  br label %26

26:                                               ; preds = %23, %18
  %27 = phi i1 [ false, %18 ], [ %25, %23 ]
  br i1 %27, label %28, label %67

28:                                               ; preds = %26
  %29 = getelementptr inbounds nuw %"class.icu_77::InputText", ptr %14, i32 0, i32 7
  %30 = load ptr, ptr %29, align 8, !tbaa !16
  %31 = load i32, ptr %5, align 4, !tbaa !21
  %32 = sext i32 %31 to i64
  %33 = getelementptr inbounds i8, ptr %30, i64 %32
  %34 = load i8, ptr %33, align 1, !tbaa !24
  store i8 %34, ptr %7, align 1, !tbaa !24
  %35 = load i8, ptr %7, align 1, !tbaa !24
  %36 = zext i8 %35 to i32
  %37 = icmp eq i32 %36, 60
  br i1 %37, label %38, label %47

38:                                               ; preds = %28
  %39 = load i8, ptr %8, align 1, !tbaa !25, !range !27, !noundef !28
  %40 = trunc i8 %39 to i1
  br i1 %40, label %41, label %44

41:                                               ; preds = %38
  %42 = load i32, ptr %10, align 4, !tbaa !21
  %43 = add nsw i32 %42, 1
  store i32 %43, ptr %10, align 4, !tbaa !21
  br label %44

44:                                               ; preds = %41, %38
  store i8 1, ptr %8, align 1, !tbaa !25
  %45 = load i32, ptr %9, align 4, !tbaa !21
  %46 = add nsw i32 %45, 1
  store i32 %46, ptr %9, align 4, !tbaa !21
  br label %47

47:                                               ; preds = %44, %28
  %48 = load i8, ptr %8, align 1, !tbaa !25, !range !27, !noundef !28
  %49 = trunc i8 %48 to i1
  br i1 %49, label %58, label %50

50:                                               ; preds = %47
  %51 = load i8, ptr %7, align 1, !tbaa !24
  %52 = getelementptr inbounds nuw %"class.icu_77::InputText", ptr %14, i32 0, i32 0
  %53 = load ptr, ptr %52, align 8, !tbaa !9
  %54 = load i32, ptr %6, align 4, !tbaa !21
  %55 = add nsw i32 %54, 1
  store i32 %55, ptr %6, align 4, !tbaa !21
  %56 = sext i32 %54 to i64
  %57 = getelementptr inbounds i8, ptr %53, i64 %56
  store i8 %51, ptr %57, align 1, !tbaa !24
  br label %58

58:                                               ; preds = %50, %47
  %59 = load i8, ptr %7, align 1, !tbaa !24
  %60 = zext i8 %59 to i32
  %61 = icmp eq i32 %60, 62
  br i1 %61, label %62, label %63

62:                                               ; preds = %58
  store i8 0, ptr %8, align 1, !tbaa !25
  br label %63

63:                                               ; preds = %62, %58
  br label %64

64:                                               ; preds = %63
  %65 = load i32, ptr %5, align 4, !tbaa !21
  %66 = add nsw i32 %65, 1
  store i32 %66, ptr %5, align 4, !tbaa !21
  br label %18, !llvm.loop !29

67:                                               ; preds = %26
  %68 = load i32, ptr %6, align 4, !tbaa !21
  %69 = getelementptr inbounds nuw %"class.icu_77::InputText", ptr %14, i32 0, i32 1
  store i32 %68, ptr %69, align 8, !tbaa !22
  br label %70

70:                                               ; preds = %67, %2
  %71 = load i32, ptr %9, align 4, !tbaa !21
  %72 = icmp slt i32 %71, 5
  br i1 %72, label %86, label %73

73:                                               ; preds = %70
  %74 = load i32, ptr %9, align 4, !tbaa !21
  %75 = sdiv i32 %74, 5
  %76 = load i32, ptr %10, align 4, !tbaa !21
  %77 = icmp slt i32 %75, %76
  br i1 %77, label %86, label %78

78:                                               ; preds = %73
  %79 = getelementptr inbounds nuw %"class.icu_77::InputText", ptr %14, i32 0, i32 1
  %80 = load i32, ptr %79, align 8, !tbaa !22
  %81 = icmp slt i32 %80, 100
  br i1 %81, label %82, label %115

82:                                               ; preds = %78
  %83 = getelementptr inbounds nuw %"class.icu_77::InputText", ptr %14, i32 0, i32 8
  %84 = load i32, ptr %83, align 8, !tbaa !17
  %85 = icmp sgt i32 %84, 600
  br i1 %85, label %86, label %115

86:                                               ; preds = %82, %73, %70
  call void @llvm.lifetime.start.p0(i64 4, ptr %11) #11
  %87 = getelementptr inbounds nuw %"class.icu_77::InputText", ptr %14, i32 0, i32 8
  %88 = load i32, ptr %87, align 8, !tbaa !17
  store i32 %88, ptr %11, align 4, !tbaa !21
  %89 = load i32, ptr %11, align 4, !tbaa !21
  %90 = icmp sgt i32 %89, 8192
  br i1 %90, label %91, label %92

91:                                               ; preds = %86
  store i32 8192, ptr %11, align 4, !tbaa !21
  br label %92

92:                                               ; preds = %91, %86
  store i32 0, ptr %5, align 4, !tbaa !21
  br label %93

93:                                               ; preds = %109, %92
  %94 = load i32, ptr %5, align 4, !tbaa !21
  %95 = load i32, ptr %11, align 4, !tbaa !21
  %96 = icmp slt i32 %94, %95
  br i1 %96, label %97, label %112

97:                                               ; preds = %93
  %98 = getelementptr inbounds nuw %"class.icu_77::InputText", ptr %14, i32 0, i32 7
  %99 = load ptr, ptr %98, align 8, !tbaa !16
  %100 = load i32, ptr %5, align 4, !tbaa !21
  %101 = sext i32 %100 to i64
  %102 = getelementptr inbounds i8, ptr %99, i64 %101
  %103 = load i8, ptr %102, align 1, !tbaa !24
  %104 = getelementptr inbounds nuw %"class.icu_77::InputText", ptr %14, i32 0, i32 0
  %105 = load ptr, ptr %104, align 8, !tbaa !9
  %106 = load i32, ptr %5, align 4, !tbaa !21
  %107 = sext i32 %106 to i64
  %108 = getelementptr inbounds i8, ptr %105, i64 %107
  store i8 %103, ptr %108, align 1, !tbaa !24
  br label %109

109:                                              ; preds = %97
  %110 = load i32, ptr %5, align 4, !tbaa !21
  %111 = add nsw i32 %110, 1
  store i32 %111, ptr %5, align 4, !tbaa !21
  br label %93, !llvm.loop !31

112:                                              ; preds = %93
  %113 = load i32, ptr %5, align 4, !tbaa !21
  %114 = getelementptr inbounds nuw %"class.icu_77::InputText", ptr %14, i32 0, i32 1
  store i32 %113, ptr %114, align 8, !tbaa !22
  call void @llvm.lifetime.end.p0(i64 4, ptr %11) #11
  br label %115

115:                                              ; preds = %112, %82, %78
  %116 = getelementptr inbounds nuw %"class.icu_77::InputText", ptr %14, i32 0, i32 3
  %117 = load ptr, ptr %116, align 8, !tbaa !14
  call void @llvm.memset.p0.i64(ptr align 2 %117, i8 0, i64 512, i1 false)
  store i32 0, ptr %5, align 4, !tbaa !21
  br label %118

118:                                              ; preds = %138, %115
  %119 = load i32, ptr %5, align 4, !tbaa !21
  %120 = getelementptr inbounds nuw %"class.icu_77::InputText", ptr %14, i32 0, i32 1
  %121 = load i32, ptr %120, align 8, !tbaa !22
  %122 = icmp slt i32 %119, %121
  br i1 %122, label %123, label %141

123:                                              ; preds = %118
  %124 = getelementptr inbounds nuw %"class.icu_77::InputText", ptr %14, i32 0, i32 3
  %125 = load ptr, ptr %124, align 8, !tbaa !14
  %126 = getelementptr inbounds nuw %"class.icu_77::InputText", ptr %14, i32 0, i32 0
  %127 = load ptr, ptr %126, align 8, !tbaa !9
  %128 = load i32, ptr %5, align 4, !tbaa !21
  %129 = sext i32 %128 to i64
  %130 = getelementptr inbounds i8, ptr %127, i64 %129
  %131 = load i8, ptr %130, align 1, !tbaa !24
  %132 = zext i8 %131 to i64
  %133 = getelementptr inbounds nuw i16, ptr %125, i64 %132
  %134 = load i16, ptr %133, align 2, !tbaa !32
  %135 = sext i16 %134 to i32
  %136 = add nsw i32 %135, 1
  %137 = trunc i32 %136 to i16
  store i16 %137, ptr %133, align 2, !tbaa !32
  br label %138

138:                                              ; preds = %123
  %139 = load i32, ptr %5, align 4, !tbaa !21
  %140 = add nsw i32 %139, 1
  store i32 %140, ptr %5, align 4, !tbaa !21
  br label %118, !llvm.loop !34

141:                                              ; preds = %118
  call void @llvm.lifetime.start.p0(i64 4, ptr %12) #11
  store i32 128, ptr %12, align 4, !tbaa !21
  br label %142

142:                                              ; preds = %158, %141
  %143 = load i32, ptr %12, align 4, !tbaa !21
  %144 = icmp sle i32 %143, 159
  br i1 %144, label %146, label %145

145:                                              ; preds = %142
  store i32 11, ptr %13, align 4
  br label %161

146:                                              ; preds = %142
  %147 = getelementptr inbounds nuw %"class.icu_77::InputText", ptr %14, i32 0, i32 3
  %148 = load ptr, ptr %147, align 8, !tbaa !14
  %149 = load i32, ptr %12, align 4, !tbaa !21
  %150 = sext i32 %149 to i64
  %151 = getelementptr inbounds i16, ptr %148, i64 %150
  %152 = load i16, ptr %151, align 2, !tbaa !32
  %153 = sext i16 %152 to i32
  %154 = icmp ne i32 %153, 0
  br i1 %154, label %155, label %157

155:                                              ; preds = %146
  %156 = getelementptr inbounds nuw %"class.icu_77::InputText", ptr %14, i32 0, i32 4
  store i8 1, ptr %156, align 8, !tbaa !23
  store i32 11, ptr %13, align 4
  br label %161

157:                                              ; preds = %146
  br label %158

158:                                              ; preds = %157
  %159 = load i32, ptr %12, align 4, !tbaa !21
  %160 = add nsw i32 %159, 1
  store i32 %160, ptr %12, align 4, !tbaa !21
  br label %142, !llvm.loop !35

161:                                              ; preds = %155, %145
  call void @llvm.lifetime.end.p0(i64 4, ptr %12) #11
  br label %162

162:                                              ; preds = %161
  call void @llvm.lifetime.end.p0(i64 4, ptr %10) #11
  call void @llvm.lifetime.end.p0(i64 4, ptr %9) #11
  call void @llvm.lifetime.end.p0(i64 1, ptr %8) #11
  call void @llvm.lifetime.end.p0(i64 1, ptr %7) #11
  call void @llvm.lifetime.end.p0(i64 4, ptr %6) #11
  call void @llvm.lifetime.end.p0(i64 4, ptr %5) #11
  ret void
}