; Function Attrs: mustprogress nofree norecurse nosync nounwind memory(readwrite, inaccessiblemem: none) uwtable
define void @_ZN6icu_779InputText10MungeInputEa(ptr noundef nonnull align 8 captures(none) dereferenceable(52) %0, i8 noundef signext %1) local_unnamed_addr #10 align 2 {
  %.not = icmp eq i8 %1, 0
  %.phi.trans.insert = getelementptr inbounds nuw i8, ptr %0, i64 48
  %.pre79 = load i32, ptr %.phi.trans.insert, align 8, !tbaa !18
  br i1 %.not, label %.thread, label %.preheader51

.preheader51:                                     ; preds = %2
  %3 = icmp sgt i32 %.pre79, 0
  br i1 %3, label %.lr.ph, label %._crit_edge61

.lr.ph:                                           ; preds = %.preheader51
  %4 = getelementptr inbounds nuw i8, ptr %0, i64 40
  br label %5

5:                                                ; preds = %.lr.ph, %18
  %6 = phi i32 [ %.pre79, %.lr.ph ], [ %19, %18 ]
  %indvars.iv = phi i64 [ 0, %.lr.ph ], [ %indvars.iv.next, %18 ]
  %.156 = phi i32 [ 0, %.lr.ph ], [ %.2, %18 ]
  %.13255 = phi i32 [ 0, %.lr.ph ], [ %.233, %18 ]
  %.03454 = phi i8 [ 0, %.lr.ph ], [ %spec.select43, %18 ]
  %.04052 = phi i32 [ 0, %.lr.ph ], [ %.141, %18 ]
  %7 = load ptr, ptr %4, align 8, !tbaa !17
  %8 = getelementptr inbounds nuw i8, ptr %7, i64 %indvars.iv
  %9 = load i8, ptr %8, align 1, !tbaa !19
  %10 = icmp eq i8 %9, 60
  %.135 = select i1 %10, i8 1, i8 %.03454
  %11 = zext i1 %10 to i32
  %.233 = add nuw nsw i32 %.13255, %11
  %narrow = select i1 %10, i8 %.03454, i8 0
  %spec.select = zext nneg i8 %narrow to i32
  %.2 = add nuw nsw i32 %.156, %spec.select
  %12 = trunc nuw i8 %.135 to i1
  br i1 %12, label %18, label %13

13:                                               ; preds = %5
  %14 = load ptr, ptr %0, align 8, !tbaa !3
  %15 = add nsw i32 %.04052, 1
  %16 = sext i32 %.04052 to i64
  %17 = getelementptr inbounds i8, ptr %14, i64 %16
  store i8 %9, ptr %17, align 1, !tbaa !19
  %.pre = load i32, ptr %.phi.trans.insert, align 8, !tbaa !18
  br label %18

18:                                               ; preds = %13, %5
  %19 = phi i32 [ %6, %5 ], [ %.pre, %13 ]
  %.141 = phi i32 [ %.04052, %5 ], [ %15, %13 ]
  %20 = icmp eq i8 %9, 62
  %spec.select43 = select i1 %20, i8 0, i8 %.135
  %indvars.iv.next = add nuw nsw i64 %indvars.iv, 1
  %21 = sext i32 %19 to i64
  %22 = icmp slt i64 %indvars.iv.next, %21
  %23 = icmp slt i32 %.141, 8192
  %24 = select i1 %22, i1 %23, i1 false
  br i1 %24, label %5, label %._crit_edge, !llvm.loop !20

._crit_edge:                                      ; preds = %18
  %25 = getelementptr inbounds nuw i8, ptr %0, i64 8
  store i32 %.141, ptr %25, align 8, !tbaa !15
  %26 = icmp samesign ult i32 %.233, 5
  %27 = udiv i32 %.233, 5
  %28 = icmp samesign ult i32 %27, %.2
  %or.cond = select i1 %26, i1 true, i1 %28
  br i1 %or.cond, label %.thread, label %29

29:                                               ; preds = %._crit_edge
  %30 = icmp slt i32 %.141, 100
  %31 = icmp sgt i32 %19, 600
  %or.cond47 = and i1 %30, %31
  br i1 %or.cond47, label %.thread.thread, label %44

.thread.thread:                                   ; preds = %29
  %32 = tail call i32 @llvm.umin.i32(i32 %19, i32 8192)
  br label %.lr.ph60

.thread:                                          ; preds = %2, %._crit_edge
  %33 = phi i32 [ %19, %._crit_edge ], [ %.pre79, %2 ]
  %34 = tail call i32 @llvm.umin.i32(i32 %33, i32 8192)
  %35 = icmp sgt i32 %33, 0
  br i1 %35, label %.lr.ph60, label %._crit_edge61

.lr.ph60:                                         ; preds = %.thread.thread, %.thread
  %spec.store.select85 = phi i32 [ %32, %.thread.thread ], [ %34, %.thread ]
  %36 = getelementptr inbounds nuw i8, ptr %0, i64 40
  %wide.trip.count = zext nneg i32 %spec.store.select85 to i64
  br label %37

37:                                               ; preds = %.lr.ph60, %37
  %indvars.iv67 = phi i64 [ 0, %.lr.ph60 ], [ %indvars.iv.next68, %37 ]
  %38 = load ptr, ptr %36, align 8, !tbaa !17
  %39 = getelementptr inbounds nuw i8, ptr %38, i64 %indvars.iv67
  %40 = load i8, ptr %39, align 1, !tbaa !19
  %41 = load ptr, ptr %0, align 8, !tbaa !3
  %42 = getelementptr inbounds nuw i8, ptr %41, i64 %indvars.iv67
  store i8 %40, ptr %42, align 1, !tbaa !19
  %indvars.iv.next68 = add nuw nsw i64 %indvars.iv67, 1
  %exitcond.not = icmp eq i64 %indvars.iv.next68, %wide.trip.count
  br i1 %exitcond.not, label %._crit_edge61, label %37, !llvm.loop !22

._crit_edge61:                                    ; preds = %37, %.preheader51, %.thread
  %.138.lcssa = phi i32 [ 0, %.thread ], [ 0, %.preheader51 ], [ %spec.store.select85, %37 ]
  %43 = getelementptr inbounds nuw i8, ptr %0, i64 8
  store i32 %.138.lcssa, ptr %43, align 8, !tbaa !15
  br label %44

44:                                               ; preds = %._crit_edge61, %29
  %45 = getelementptr inbounds nuw i8, ptr %0, i64 16
  %46 = load ptr, ptr %45, align 8, !tbaa !11
  tail call void @llvm.memset.p0.i64(ptr noundef nonnull align 2 dereferenceable(512) %46, i8 0, i64 512, i1 false)
  %47 = getelementptr inbounds nuw i8, ptr %0, i64 8
  %48 = load i32, ptr %47, align 8, !tbaa !15
  %49 = icmp sgt i32 %48, 0
  %.pre80 = load ptr, ptr %45, align 8, !tbaa !11
  br i1 %49, label %.lr.ph65, label %.preheader.preheader

.lr.ph65:                                         ; preds = %44
  %50 = load ptr, ptr %0, align 8, !tbaa !3
  %wide.trip.count73 = zext nneg i32 %48 to i64
  br label %51

51:                                               ; preds = %.lr.ph65, %51
  %indvars.iv70 = phi i64 [ 0, %.lr.ph65 ], [ %indvars.iv.next71, %51 ]
  %52 = getelementptr inbounds nuw i8, ptr %50, i64 %indvars.iv70
  %53 = load i8, ptr %52, align 1, !tbaa !19
  %54 = zext i8 %53 to i64
  %55 = getelementptr inbounds nuw i16, ptr %.pre80, i64 %54
  %56 = load i16, ptr %55, align 2, !tbaa !23
  %57 = add i16 %56, 1
  store i16 %57, ptr %55, align 2, !tbaa !23
  %indvars.iv.next71 = add nuw nsw i64 %indvars.iv70, 1
  %exitcond74.not = icmp eq i64 %indvars.iv.next71, %wide.trip.count73
  br i1 %exitcond74.not, label %.preheader.preheader, label %51, !llvm.loop !25

.preheader.preheader:                             ; preds = %51, %44
  br label %.preheader

58:                                               ; preds = %.preheader
  %indvars.iv.next76 = add nuw nsw i64 %indvars.iv75, 1
  %exitcond78.not = icmp eq i64 %indvars.iv.next76, 160
  br i1 %exitcond78.not, label %.loopexit, label %.preheader, !llvm.loop !26

.preheader:                                       ; preds = %.preheader.preheader, %58
  %indvars.iv75 = phi i64 [ %indvars.iv.next76, %58 ], [ 128, %.preheader.preheader ]
  %59 = getelementptr inbounds nuw i16, ptr %.pre80, i64 %indvars.iv75
  %60 = load i16, ptr %59, align 2, !tbaa !23
  %.not42 = icmp eq i16 %60, 0
  br i1 %.not42, label %58, label %61

61:                                               ; preds = %.preheader
  %62 = getelementptr inbounds nuw i8, ptr %0, i64 24
  store i8 1, ptr %62, align 8, !tbaa !16
  br label %.loopexit

.loopexit:                                        ; preds = %58, %61
  ret void
}